target datalayout = "e-m:e-p270:32:32-p271:32:32-p272:64:64-i64:64-i128:128-f80:128-n8:16:32:64-S128"
target triple = "x86_64-pc-linux-gnu"

%struct.FFDrawContext = type { ptr, i32, i32, [4 x i32], [4 x i8], [4 x i8], i8, i8, i32, i32, i32, [3 x [3 x double]] }
%struct.FFDrawColor = type { [4 x i8], [4 x %union.anon.2] }
%union.anon.2 = type { [4 x i32] }

; Function Attrs: nounwind uwtable
define internal void @reverse_color8(ptr noundef %0, ptr noundef %1, ptr noundef %2) #0 {
  %4 = alloca ptr, align 8
  %5 = alloca ptr, align 8
  %6 = alloca ptr, align 8
  %7 = alloca i32, align 4
  store ptr %0, ptr %4, align 8, !tbaa !84
  store ptr %1, ptr %5, align 8, !tbaa !86
  store ptr %2, ptr %6, align 8, !tbaa !86
  call void @llvm.lifetime.start.p0(i64 4, ptr %7) #11
  %8 = load ptr, ptr %6, align 8, !tbaa !86
  %9 = getelementptr inbounds nuw %struct.FFDrawColor, ptr %8, i32 0, i32 0
  %10 = getelementptr inbounds [4 x i8], ptr %9, i64 0, i64 3
  store i8 -1, ptr %10, align 1, !tbaa !70
  store i32 0, ptr %7, align 4, !tbaa !14
  br label %11

11:                                               ; preds = %69, %3
  %12 = load i32, ptr %7, align 4, !tbaa !14
  %13 = load ptr, ptr %4, align 8, !tbaa !84
  %14 = getelementptr inbounds nuw %struct.FFDrawContext, ptr %13, i32 0, i32 2
  %15 = load i32, ptr %14, align 4, !tbaa !109
  %16 = icmp ult i32 %12, %15
  br i1 %16, label %17, label %72

17:                                               ; preds = %11
  %18 = load ptr, ptr %5, align 8, !tbaa !86
  %19 = getelementptr inbounds nuw %struct.FFDrawColor, ptr %18, i32 0, i32 1
  %20 = load i32, ptr %7, align 4, !tbaa !14
  %21 = sext i32 %20 to i64
  %22 = getelementptr inbounds [4 x %union.anon.2], ptr %19, i64 0, i64 %21
  %23 = getelementptr inbounds [16 x i8], ptr %22, i64 0, i64 0
  %24 = load i8, ptr %23, align 4, !tbaa !70
  %25 = zext i8 %24 to i32
  %26 = icmp sgt i32 %25, 127
  %27 = select i1 %26, i32 0, i32 255
  %28 = trunc i32 %27 to i8
  %29 = load ptr, ptr %6, align 8, !tbaa !86
  %30 = getelementptr inbounds nuw %struct.FFDrawColor, ptr %29, i32 0, i32 1
  %31 = load i32, ptr %7, align 4, !tbaa !14
  %32 = sext i32 %31 to i64
  %33 = getelementptr inbounds [4 x %union.anon.2], ptr %30, i64 0, i64 %32
  %34 = getelementptr inbounds [16 x i8], ptr %33, i64 0, i64 0
  store i8 %28, ptr %34, align 4, !tbaa !70
  %35 = load ptr, ptr %5, align 8, !tbaa !86
  %36 = getelementptr inbounds nuw %struct.FFDrawColor, ptr %35, i32 0, i32 1
  %37 = load i32, ptr %7, align 4, !tbaa !14
  %38 = sext i32 %37 to i64
  %39 = getelementptr inbounds [4 x %union.anon.2], ptr %36, i64 0, i64 %38
  %40 = getelementptr inbounds [16 x i8], ptr %39, i64 0, i64 1
  %41 = load i8, ptr %40, align 1, !tbaa !70
  %42 = zext i8 %41 to i32
  %43 = icmp sgt i32 %42, 127
  %44 = select i1 %43, i32 0, i32 255
  %45 = trunc i32 %44 to i8
  %46 = load ptr, ptr %6, align 8, !tbaa !86
  %47 = getelementptr inbounds nuw %struct.FFDrawColor, ptr %46, i32 0, i32 1
  %48 = load i32, ptr %7, align 4, !tbaa !14
  %49 = sext i32 %48 to i64
  %50 = getelementptr inbounds [4 x %union.anon.2], ptr %47, i64 0, i64 %49
  %51 = getelementptr inbounds [16 x i8], ptr %50, i64 0, i64 1
  store i8 %45, ptr %51, align 1, !tbaa !70
  %52 = load ptr, ptr %5, align 8, !tbaa !86
  %53 = getelementptr inbounds nuw %struct.FFDrawColor, ptr %52, i32 0, i32 1
  %54 = load i32, ptr %7, align 4, !tbaa !14
  %55 = sext i32 %54 to i64
  %56 = getelementptr inbounds [4 x %union.anon.2], ptr %53, i64 0, i64 %55
  %57 = getelementptr inbounds [16 x i8], ptr %56, i64 0, i64 2
  %58 = load i8, ptr %57, align 2, !tbaa !70
  %59 = zext i8 %58 to i32
  %60 = icmp sgt i32 %59, 127
  %61 = select i1 %60, i32 0, i32 255
  %62 = trunc i32 %61 to i8
  %63 = load ptr, ptr %6, align 8, !tbaa !86
  %64 = getelementptr inbounds nuw %struct.FFDrawColor, ptr %63, i32 0, i32 1
  %65 = load i32, ptr %7, align 4, !tbaa !14
  %66 = sext i32 %65 to i64
  %67 = getelementptr inbounds [4 x %union.anon.2], ptr %64, i64 0, i64 %66
  %68 = getelementptr inbounds [16 x i8], ptr %67, i64 0, i64 2
  store i8 %62, ptr %68, align 2, !tbaa !70
  br label %69

69:                                               ; preds = %17
  %70 = load i32, ptr %7, align 4, !tbaa !14
  %71 = add nsw i32 %70, 1
  store i32 %71, ptr %7, align 4, !tbaa !14
  br label %11, !llvm.loop !112

72:                                               ; preds = %11
  call void @llvm.lifetime.end.p0(i64 4, ptr %7) #11
  ret void
}