; Function Attrs: nofree norecurse nosync nounwind memory(argmem: readwrite) uwtable
define internal void @reverse_color8(ptr noundef readonly captures(none) %0, ptr noundef readonly captures(none) %1, ptr noundef writeonly captures(none) initializes((3, 4)) %2) #8 {
  %4 = getelementptr inbounds nuw i8, ptr %2, i64 3
  store i8 -1, ptr %4, align 1, !tbaa !51
  %5 = getelementptr inbounds nuw i8, ptr %0, i64 12
  %6 = load i32, ptr %5, align 4, !tbaa !93
  %.not = icmp eq i32 %6, 0
  br i1 %.not, label %._crit_edge, label %.lr.ph

.lr.ph:                                           ; preds = %3
  %7 = getelementptr inbounds nuw i8, ptr %1, i64 4
  %8 = getelementptr inbounds nuw i8, ptr %2, i64 4
  br label %9

9:                                                ; preds = %.lr.ph, %9
  %indvars.iv = phi i64 [ 0, %.lr.ph ], [ %indvars.iv.next, %9 ]
  %10 = getelementptr inbounds nuw [4 x %union.anon.2], ptr %7, i64 0, i64 %indvars.iv
  %11 = load i8, ptr %10, align 4, !tbaa !51
  %12 = icmp sgt i8 %11, -1
  %13 = sext i1 %12 to i8
  %14 = getelementptr inbounds nuw [4 x %union.anon.2], ptr %8, i64 0, i64 %indvars.iv
  store i8 %13, ptr %14, align 4, !tbaa !51
  %15 = getelementptr inbounds nuw i8, ptr %10, i64 1
  %16 = load i8, ptr %15, align 1, !tbaa !51
  %17 = icmp sgt i8 %16, -1
  %18 = sext i1 %17 to i8
  %19 = getelementptr inbounds nuw i8, ptr %14, i64 1
  store i8 %18, ptr %19, align 1, !tbaa !51
  %20 = getelementptr inbounds nuw i8, ptr %10, i64 2
  %21 = load i8, ptr %20, align 2, !tbaa !51
  %22 = icmp sgt i8 %21, -1
  %23 = sext i1 %22 to i8
  %24 = getelementptr inbounds nuw i8, ptr %14, i64 2
  store i8 %23, ptr %24, align 2, !tbaa !51
  %indvars.iv.next = add nuw nsw i64 %indvars.iv, 1
  %25 = load i32, ptr %5, align 4, !tbaa !93
  %26 = zext i32 %25 to i64
  %27 = icmp samesign ult i64 %indvars.iv.next, %26
  br i1 %27, label %9, label %._crit_edge, !llvm.loop !96

._crit_edge:                                      ; preds = %9, %3
  ret void
}